; Function Attrs: mustprogress uwtable
define hidden noundef zeroext i1 @_ZNK4cvc58internal5DType8isFiniteEb(ptr noundef nonnull align 8 dereferenceable(448) %0, i1 noundef zeroext %1) local_unnamed_addr #3 align 2 personality ptr @__gxx_personality_v0 {
  %3 = alloca %"class.cvc5::internal::TypeNode", align 8
  %4 = getelementptr inbounds nuw i8, ptr %0, i64 96
  %5 = load ptr, ptr %4, align 8, !tbaa !61
  store ptr %5, ptr %3, align 8, !tbaa !61
  %6 = load i64, ptr %5, align 8
  %7 = lshr i64 %6, 40
  %8 = trunc nuw nsw i64 %7 to i32
  %9 = and i32 %8, 1048575
  %10 = icmp samesign ult i32 %9, 1048574
  br i1 %10, label %11, label %16, !prof !92

11:                                               ; preds = %2
  %12 = add i64 %6, 1099511627776
  %13 = and i64 %12, 1152920405095219200
  %14 = and i64 %6, -1152920405095219201
  %15 = or disjoint i64 %13, %14
  store i64 %15, ptr %5, align 8
  br label %_ZN4cvc58internal8TypeNodeC2ERKS1_.exit

16:                                               ; preds = %2
  %17 = icmp eq i32 %9, 1048574
  br i1 %17, label %18, label %_ZN4cvc58internal8TypeNodeC2ERKS1_.exit, !prof !72

18:                                               ; preds = %16
  %19 = or i64 %6, 1152920405095219200
  store i64 %19, ptr %5, align 8
  tail call void @_ZN4cvc58internal4expr9NodeValue20markRefCountMaxedOutEv(ptr noundef nonnull align 8 dereferenceable(24) %5)
  br label %_ZN4cvc58internal8TypeNodeC2ERKS1_.exit

_ZN4cvc58internal8TypeNodeC2ERKS1_.exit:          ; preds = %11, %16, %18
  %20 = invoke noundef zeroext i1 @_ZNK4cvc58internal5DType8isFiniteENS0_8TypeNodeEb(ptr noundef nonnull align 8 dereferenceable(448) %0, ptr noundef nonnull %3, i1 noundef zeroext %1)
          to label %21 unwind label %34

21:                                               ; preds = %_ZN4cvc58internal8TypeNodeC2ERKS1_.exit
  %22 = load i64, ptr %5, align 8
  %23 = and i64 %22, 1152920405095219200
  %.not.i.i = icmp eq i64 %23, 1152920405095219200
  br i1 %.not.i.i, label %_ZN4cvc58internal8TypeNodeD2Ev.exit, label %24, !prof !72

24:                                               ; preds = %21
  %25 = add i64 %22, 1152920405095219200
  %26 = and i64 %25, 1152920405095219200
  %27 = and i64 %22, -1152920405095219201
  %28 = or disjoint i64 %26, %27
  store i64 %28, ptr %5, align 8
  %29 = icmp eq i64 %26, 0
  br i1 %29, label %30, label %_ZN4cvc58internal8TypeNodeD2Ev.exit, !prof !72

30:                                               ; preds = %24
  invoke void @_ZN4cvc58internal4expr9NodeValue15markForDeletionEv(ptr noundef nonnull align 8 dereferenceable(24) %5)
          to label %_ZN4cvc58internal8TypeNodeD2Ev.exit unwind label %31

31:                                               ; preds = %30
  %32 = landingpad { ptr, i32 }
          catch ptr null
  %33 = extractvalue { ptr, i32 } %32, 0
  tail call void @__clang_call_terminate(ptr %33) #32
  unreachable

_ZN4cvc58internal8TypeNodeD2Ev.exit:              ; preds = %21, %24, %30
  ret i1 %20

34:                                               ; preds = %_ZN4cvc58internal8TypeNodeC2ERKS1_.exit
  %35 = landingpad { ptr, i32 }
          cleanup
  call void @_ZN4cvc58internal8TypeNodeD2Ev(ptr noundef nonnull align 8 dereferenceable(8) %3) #29
  resume { ptr, i32 } %35
}